target datalayout = "e-m:e-p270:32:32-p271:32:32-p272:64:64-i64:64-i128:128-f80:128-n8:16:32:64-S128"
target triple = "x86_64-pc-linux-gnu"

; Function Attrs: nounwind uwtable
define i32 @ossl_quic_wire_determine_pn_len(i64 noundef %0, i64 noundef %1) #0 {
  %3 = alloca i32, align 4
  %4 = alloca i64, align 8
  %5 = alloca i64, align 8
  %6 = alloca i64, align 8
  %7 = alloca i32, align 4
  store i64 %0, ptr %4, align 8, !tbaa !14
  store i64 %1, ptr %5, align 8, !tbaa !14
  call void @llvm.lifetime.start.p0(i64 8, ptr %6) #7
  %8 = load i64, ptr %5, align 8, !tbaa !14
  %9 = icmp eq i64 %8, -1
  br i1 %9, label %10, label %13

10:                                               ; preds = %2
  %11 = load i64, ptr %4, align 8, !tbaa !14
  %12 = add i64 %11, 1
  br label %17

13:                                               ; preds = %2
  %14 = load i64, ptr %4, align 8, !tbaa !14
  %15 = load i64, ptr %5, align 8, !tbaa !14
  %16 = sub i64 %14, %15
  br label %17

17:                                               ; preds = %13, %10
  %18 = phi i64 [ %12, %10 ], [ %16, %13 ]
  store i64 %18, ptr %6, align 8, !tbaa !14
  %19 = load i64, ptr %6, align 8, !tbaa !14
  %20 = icmp ule i64 %19, 128
  br i1 %20, label %21, label %22

21:                                               ; preds = %17
  store i32 1, ptr %3, align 4
  store i32 1, ptr %7, align 4
  br label %31

22:                                               ; preds = %17
  %23 = load i64, ptr %6, align 8, !tbaa !14
  %24 = icmp ule i64 %23, 32768
  br i1 %24, label %25, label %26

25:                                               ; preds = %22
  store i32 2, ptr %3, align 4
  store i32 1, ptr %7, align 4
  br label %31

26:                                               ; preds = %22
  %27 = load i64, ptr %6, align 8, !tbaa !14
  %28 = icmp ule i64 %27, 8388608
  br i1 %28, label %29, label %30

29:                                               ; preds = %26
  store i32 3, ptr %3, align 4
  store i32 1, ptr %7, align 4
  br label %31

30:                                               ; preds = %26
  store i32 4, ptr %3, align 4
  store i32 1, ptr %7, align 4
  br label %31

31:                                               ; preds = %30, %29, %25, %21
  call void @llvm.lifetime.end.p0(i64 8, ptr %6) #7
  %32 = load i32, ptr %3, align 4
  ret i32 %32
}