; Function Attrs: mustprogress nofree norecurse nosync nounwind willreturn memory(none) uwtable
define range(i32 1, 5) i32 @ossl_quic_wire_determine_pn_len(i64 noundef %0, i64 noundef %1) local_unnamed_addr #8 {
  %3 = sub i64 %0, %1
  %4 = icmp ult i64 %3, 129
  br i1 %4, label %9, label %5

5:                                                ; preds = %2
  %6 = icmp ult i64 %3, 32769
  br i1 %6, label %9, label %7

7:                                                ; preds = %5
  %8 = icmp ult i64 %3, 8388609
  %. = select i1 %8, i32 3, i32 4
  br label %9

9:                                                ; preds = %7, %5, %2
  %.0 = phi i32 [ 1, %2 ], [ 2, %5 ], [ %., %7 ]
  ret i32 %.0
}